#include <math.h>
#include <stdio.h>
#include <stdlib.h>
#include <string.h>


int main()
{
	char data[1000]={0};
	int i,j,n,len[1000]={0};
	scanf("%d",&n);
	for (i=0;i<n;i++){
		scanf("%s",data);
		for(j=0;j<1000;j++){
			if(data[j]=='T'){
				data[j]='A';
				continue;
			}
			if(data[j]=='A'){
				data[j]='T';
				continue;
			}
			if(data[j]=='C'){
				data[j]='G';
				continue;
			}
			if(data[j]=='G'){
				data[j]='C';
				continue;
			}
		}
		printf("%s\n",data);
	}
		
		
	
	return 0;
}
