; ModuleID = '33/1905.c'
source_filename = "33/1905.c"
target datalayout = "e-m:e-p270:32:32-p271:32:32-p272:64:64-i64:64-f80:128-n8:16:32:64-S128"
target triple = "x86_64-pc-linux-gnu"

@.str = private unnamed_addr constant [3 x i8] c"%d\00", align 1
@.str.1 = private unnamed_addr constant [3 x i8] c"%s\00", align 1
@.str.2 = private unnamed_addr constant [4 x i8] c"%s\0A\00", align 1

; Function Attrs: noinline nounwind uwtable
define dso_local i32 @main() #0 {
  %1 = alloca i32, align 4
  %2 = alloca [1000 x i8], align 16
  %3 = alloca i32, align 4
  %4 = alloca i32, align 4
  %5 = alloca i32, align 4
  %6 = alloca [1000 x i32], align 16
  store i32 0, i32* %1, align 4
  %7 = bitcast [1000 x i8]* %2 to i8*
  call void @llvm.memset.p0i8.i64(i8* align 16 %7, i8 0, i64 1000, i1 false)
  %8 = bitcast [1000 x i32]* %6 to i8*
  call void @llvm.memset.p0i8.i64(i8* align 16 %8, i8 0, i64 4000, i1 false)
  %9 = call i32 (i8*, ...) @__isoc99_scanf(i8* getelementptr inbounds ([3 x i8], [3 x i8]* @.str, i64 0, i64 0), i32* %5)
  store i32 0, i32* %3, align 4
  br label %10

10:                                               ; preds = %71, %0
  %11 = load i32, i32* %3, align 4
  %12 = load i32, i32* %5, align 4
  %13 = icmp slt i32 %11, %12
  br i1 %13, label %14, label %74

14:                                               ; preds = %10
  %15 = getelementptr inbounds [1000 x i8], [1000 x i8]* %2, i64 0, i64 0
  %16 = call i32 (i8*, ...) @__isoc99_scanf(i8* getelementptr inbounds ([3 x i8], [3 x i8]* @.str.1, i64 0, i64 0), i8* %15)
  store i32 0, i32* %4, align 4
  br label %17

17:                                               ; preds = %65, %14
  %18 = load i32, i32* %4, align 4
  %19 = icmp slt i32 %18, 1000
  br i1 %19, label %20, label %68

20:                                               ; preds = %17
  %21 = load i32, i32* %4, align 4
  %22 = sext i32 %21 to i64
  %23 = getelementptr inbounds [1000 x i8], [1000 x i8]* %2, i64 0, i64 %22
  %24 = load i8, i8* %23, align 1
  %25 = sext i8 %24 to i32
  %26 = icmp eq i32 %25, 84
  br i1 %26, label %27, label %31

27:                                               ; preds = %20
  %28 = load i32, i32* %4, align 4
  %29 = sext i32 %28 to i64
  %30 = getelementptr inbounds [1000 x i8], [1000 x i8]* %2, i64 0, i64 %29
  store i8 65, i8* %30, align 1
  br label %65

31:                                               ; preds = %20
  %32 = load i32, i32* %4, align 4
  %33 = sext i32 %32 to i64
  %34 = getelementptr inbounds [1000 x i8], [1000 x i8]* %2, i64 0, i64 %33
  %35 = load i8, i8* %34, align 1
  %36 = sext i8 %35 to i32
  %37 = icmp eq i32 %36, 65
  br i1 %37, label %38, label %42

38:                                               ; preds = %31
  %39 = load i32, i32* %4, align 4
  %40 = sext i32 %39 to i64
  %41 = getelementptr inbounds [1000 x i8], [1000 x i8]* %2, i64 0, i64 %40
  store i8 84, i8* %41, align 1
  br label %65

42:                                               ; preds = %31
  %43 = load i32, i32* %4, align 4
  %44 = sext i32 %43 to i64
  %45 = getelementptr inbounds [1000 x i8], [1000 x i8]* %2, i64 0, i64 %44
  %46 = load i8, i8* %45, align 1
  %47 = sext i8 %46 to i32
  %48 = icmp eq i32 %47, 67
  br i1 %48, label %49, label %53

49:                                               ; preds = %42
  %50 = load i32, i32* %4, align 4
  %51 = sext i32 %50 to i64
  %52 = getelementptr inbounds [1000 x i8], [1000 x i8]* %2, i64 0, i64 %51
  store i8 71, i8* %52, align 1
  br label %65

53:                                               ; preds = %42
  %54 = load i32, i32* %4, align 4
  %55 = sext i32 %54 to i64
  %56 = getelementptr inbounds [1000 x i8], [1000 x i8]* %2, i64 0, i64 %55
  %57 = load i8, i8* %56, align 1
  %58 = sext i8 %57 to i32
  %59 = icmp eq i32 %58, 71
  br i1 %59, label %60, label %64

60:                                               ; preds = %53
  %61 = load i32, i32* %4, align 4
  %62 = sext i32 %61 to i64
  %63 = getelementptr inbounds [1000 x i8], [1000 x i8]* %2, i64 0, i64 %62
  store i8 67, i8* %63, align 1
  br label %65

64:                                               ; preds = %53
  br label %65

65:                                               ; preds = %64, %60, %49, %38, %27
  %66 = load i32, i32* %4, align 4
  %67 = add nsw i32 %66, 1
  store i32 %67, i32* %4, align 4
  br label %17

68:                                               ; preds = %17
  %69 = getelementptr inbounds [1000 x i8], [1000 x i8]* %2, i64 0, i64 0
  %70 = call i32 (i8*, ...) @printf(i8* getelementptr inbounds ([4 x i8], [4 x i8]* @.str.2, i64 0, i64 0), i8* %69)
  br label %71

71:                                               ; preds = %68
  %72 = load i32, i32* %3, align 4
  %73 = add nsw i32 %72, 1
  store i32 %73, i32* %3, align 4
  br label %10

74:                                               ; preds = %10
  ret i32 0
}

; Function Attrs: argmemonly nounwind willreturn
declare void @llvm.memset.p0i8.i64(i8* nocapture writeonly, i8, i64, i1 immarg) #1

declare dso_local i32 @__isoc99_scanf(i8*, ...) #2

declare dso_local i32 @printf(i8*, ...) #2


!llvm.module.flags = !{!0}
!llvm.ident = !{!1}

!0 = !{i32 1, !"wchar_size", i32 4}
!1 = !{!"clang version 10.0.0-4ubuntu1 "}
