; ModuleID = 'source-C-CXX/32/1905.c'
source_filename = "source-C-CXX/32/1905.c"
target datalayout = "e-m:e-p270:32:32-p271:32:32-p272:64:64-i64:64-f80:128-n8:16:32:64-S128"
target triple = "x86_64-pc-linux-gnu"

@.str = private unnamed_addr constant [3 x i8] c"%d\00", align 1
@.str.1 = private unnamed_addr constant [3 x i8] c"%s\00", align 1

; Function Attrs: nofree nounwind sspstrong uwtable
define dso_local i32 @main() local_unnamed_addr #0 {
  %1 = alloca [1000 x i8], align 16
  %2 = alloca i32, align 4
  %3 = getelementptr inbounds [1000 x i8], [1000 x i8]* %1, i64 0, i64 0
  call void @llvm.lifetime.start.p0i8(i64 1000, i8* nonnull %3) #5
  call void @llvm.memset.p0i8.i64(i8* noundef nonnull align 16 dereferenceable(1000) %3, i8 0, i64 1000, i1 false)
  %4 = bitcast i32* %2 to i8*
  call void @llvm.lifetime.start.p0i8(i64 4, i8* nonnull %4) #5
  %5 = call i32 (i8*, ...) @__isoc99_scanf(i8* getelementptr inbounds ([3 x i8], [3 x i8]* @.str, i64 0, i64 0), i32* nonnull %2)
  %6 = load i32, i32* %2, align 4, !tbaa !5
  %7 = icmp sgt i32 %6, 0
  br i1 %7, label %8, label %29

8:                                                ; preds = %0, %24
  %9 = phi i32 [ %26, %24 ], [ 0, %0 ]
  %10 = call i32 (i8*, ...) @__isoc99_scanf(i8* getelementptr inbounds ([3 x i8], [3 x i8]* @.str.1, i64 0, i64 0), i8* nonnull %3)
  br label %11

11:                                               ; preds = %35, %8
  %12 = phi i64 [ 0, %8 ], [ %36, %35 ]
  %13 = getelementptr inbounds [1000 x i8], [1000 x i8]* %1, i64 0, i64 %12
  %14 = load i8, i8* %13, align 2, !tbaa !9
  switch i8 %14, label %20 [
    i8 84, label %18
    i8 65, label %15
    i8 67, label %16
    i8 71, label %17
  ]

15:                                               ; preds = %11
  br label %18

16:                                               ; preds = %11
  br label %18

17:                                               ; preds = %11
  br label %18

18:                                               ; preds = %11, %15, %16, %17
  %19 = phi i8 [ 67, %17 ], [ 71, %16 ], [ 84, %15 ], [ 65, %11 ]
  store i8 %19, i8* %13, align 2, !tbaa !9
  br label %20

20:                                               ; preds = %18, %11
  %21 = or i64 %12, 1
  %22 = getelementptr inbounds [1000 x i8], [1000 x i8]* %1, i64 0, i64 %21
  %23 = load i8, i8* %22, align 1, !tbaa !9
  switch i8 %23, label %35 [
    i8 84, label %33
    i8 65, label %32
    i8 67, label %31
    i8 71, label %30
  ]

24:                                               ; preds = %35
  %25 = call i32 @puts(i8* nonnull %3)
  %26 = add nuw nsw i32 %9, 1
  %27 = load i32, i32* %2, align 4, !tbaa !5
  %28 = icmp slt i32 %26, %27
  br i1 %28, label %8, label %29, !llvm.loop !10

29:                                               ; preds = %24, %0
  call void @llvm.lifetime.end.p0i8(i64 4, i8* nonnull %4) #5
  call void @llvm.lifetime.end.p0i8(i64 1000, i8* nonnull %3) #5
  ret i32 0

30:                                               ; preds = %20
  br label %33

31:                                               ; preds = %20
  br label %33

32:                                               ; preds = %20
  br label %33

33:                                               ; preds = %32, %31, %30, %20
  %34 = phi i8 [ 67, %30 ], [ 71, %31 ], [ 84, %32 ], [ 65, %20 ]
  store i8 %34, i8* %22, align 1, !tbaa !9
  br label %35

35:                                               ; preds = %33, %20
  %36 = add nuw nsw i64 %12, 2
  %37 = icmp eq i64 %36, 1000
  br i1 %37, label %24, label %11, !llvm.loop !12
}

; Function Attrs: argmemonly mustprogress nofree nosync nounwind willreturn
declare void @llvm.lifetime.start.p0i8(i64 immarg, i8* nocapture) #1

; Function Attrs: argmemonly mustprogress nofree nounwind willreturn writeonly
declare void @llvm.memset.p0i8.i64(i8* nocapture writeonly, i8, i64, i1 immarg) #2

; Function Attrs: nofree nounwind
declare noundef i32 @__isoc99_scanf(i8* nocapture noundef readonly, ...) local_unnamed_addr #3

; Function Attrs: argmemonly mustprogress nofree nosync nounwind willreturn
declare void @llvm.lifetime.end.p0i8(i64 immarg, i8* nocapture) #1

; Function Attrs: nofree nounwind
declare noundef i32 @puts(i8* nocapture noundef readonly) local_unnamed_addr #4


!llvm.module.flags = !{!0, !1, !2, !3}
!llvm.ident = !{!4}

!0 = !{i32 1, !"wchar_size", i32 4}
!1 = !{i32 7, !"PIC Level", i32 2}
!2 = !{i32 7, !"PIE Level", i32 2}
!3 = !{i32 7, !"uwtable", i32 1}
!4 = !{!"clang version 13.0.0"}
!5 = !{!6, !6, i64 0}
!6 = !{!"int", !7, i64 0}
!7 = !{!"omnipotent char", !8, i64 0}
!8 = !{!"Simple C/C++ TBAA"}
!9 = !{!7, !7, i64 0}
!10 = distinct !{!10, !11}
!11 = !{!"llvm.loop.mustprogress"}
!12 = distinct !{!12, !11}
